; Function Attrs: nounwind uwtable
define internal noundef ptr @bt_uuids_copy_cb(ptr noundef returned writeonly initializes((0, 16)) %0, ptr noundef readonly captures(none) %1, i64 %2) #1 {
  %4 = load ptr, ptr %1, align 8
  %5 = tail call noalias ptr @g_strdup(ptr noundef %4) #9
  store ptr %5, ptr %0, align 8
  %6 = getelementptr inbounds nuw i8, ptr %1, i64 8
  %7 = load ptr, ptr %6, align 8
  %8 = tail call noalias ptr @g_strdup(ptr noundef %7) #9
  %9 = getelementptr inbounds nuw i8, ptr %0, i64 8
  store ptr %8, ptr %9, align 8
  ret ptr %0
}